target datalayout = "e-m:e-p270:32:32-p271:32:32-p272:64:64-i64:64-i128:128-f80:128-n8:16:32:64-S128"
target triple = "x86_64-pc-linux-gnu"

%"class.tbb::detail::r1::input_buffer" = type <{ ptr, i64, i64, %"class.tbb::detail::d1::spin_mutex", [7 x i8], i64, i8, [3 x i8], %"class.tbb::detail::r1::basic_tls", i8, [7 x i8] }>
%"class.tbb::detail::d1::spin_mutex" = type { %"struct.std::atomic" }
%"struct.std::atomic" = type { %"struct.std::__atomic_base" }
%"struct.std::__atomic_base" = type { i8 }
%"class.tbb::detail::r1::basic_tls" = type { i32 }
%"class.tbb::detail::r1::pipeline" = type { ptr, ptr, ptr, %"struct.std::atomic.0", %"struct.std::atomic", %"class.tbb::detail::d1::wait_context" }
%"struct.std::atomic.0" = type { %"struct.std::__atomic_base.1" }
%"struct.std::__atomic_base.1" = type { i64 }
%"class.tbb::detail::d1::wait_context" = type { i64, %"struct.std::atomic.0" }
%"class.tbb::detail::d1::base_filter" = type { ptr, ptr, ptr, i32, ptr }

; Function Attrs: mustprogress nounwind sspstrong uwtable
define linkonce_odr noundef i32 @_ZStanSt12memory_orderSt23__memory_order_modifier(i32 noundef %0, i32 noundef %1) #3 comdat {
  %3 = alloca i32, align 4
  %4 = alloca i32, align 4
  store i32 %0, ptr %3, align 4, !tbaa !61
  store i32 %1, ptr %4, align 4, !tbaa !90
  %5 = load i32, ptr %3, align 4, !tbaa !61
  %6 = load i32, ptr %4, align 4, !tbaa !90
  %7 = and i32 %5, %6
  ret i32 %7
}

; Function Attrs: mustprogress nounwind sspstrong uwtable
define linkonce_odr void @_ZN3tbb6detail2r19basic_tlsIPNS1_12input_bufferEE3setES4_(ptr noundef nonnull align 4 dereferenceable(4) %0, ptr noundef %1) #3 comdat align 2 {
  %3 = alloca ptr, align 8
  %4 = alloca ptr, align 8
  store ptr %0, ptr %3, align 8, !tbaa !101
  store ptr %1, ptr %4, align 8, !tbaa !3
  %5 = load ptr, ptr %3, align 8
  %6 = getelementptr inbounds nuw %"class.tbb::detail::r1::basic_tls", ptr %5, i32 0, i32 0
  %7 = load i32, ptr %6, align 4, !tbaa !103
  %8 = load ptr, ptr %4, align 8, !tbaa !3
  %9 = call i32 @pthread_setspecific(i32 noundef %7, ptr noundef %8) #12
  ret void
}

; Function Attrs: alwaysinline mustprogress nounwind sspstrong uwtable
define linkonce_odr void @_ZNSt13__atomic_baseIbE5storeEbSt12memory_order(ptr noundef nonnull align 1 dereferenceable(1) %0, i1 noundef zeroext %1, i32 noundef %2) #4 comdat align 2 {
  %4 = alloca ptr, align 8
  %5 = alloca i8, align 1
  %6 = alloca i32, align 4
  %7 = alloca i32, align 4
  %8 = alloca i8, align 1
  store ptr %0, ptr %4, align 8, !tbaa !88
  %9 = zext i1 %1 to i8
  store i8 %9, ptr %5, align 1, !tbaa !29
  store i32 %2, ptr %6, align 4, !tbaa !61
  %10 = load ptr, ptr %4, align 8
  call void @llvm.lifetime.start.p0(i64 4, ptr %7) #12
  %11 = load i32, ptr %6, align 4, !tbaa !61
  %12 = call noundef i32 @_ZStanSt12memory_orderSt23__memory_order_modifier(i32 noundef %11, i32 noundef 65535)
  store i32 %12, ptr %7, align 4, !tbaa !61
  br label %13

13:                                               ; preds = %3
  br label %14

14:                                               ; preds = %13
  br label %15

15:                                               ; preds = %14
  br label %16

16:                                               ; preds = %15
  br label %17

17:                                               ; preds = %16
  br label %18

18:                                               ; preds = %17
  br label %19

19:                                               ; preds = %18
  br label %20

20:                                               ; preds = %19
  br label %21

21:                                               ; preds = %20
  %22 = getelementptr inbounds nuw %"struct.std::__atomic_base", ptr %10, i32 0, i32 0
  %23 = load i32, ptr %6, align 4, !tbaa !61
  %24 = load i8, ptr %5, align 1, !tbaa !29, !range !45, !noundef !46
  %25 = trunc i8 %24 to i1
  %26 = zext i1 %25 to i8
  store i8 %26, ptr %8, align 1, !tbaa !29
  switch i32 %23, label %27 [
    i32 3, label %29
    i32 5, label %31
  ]

27:                                               ; preds = %21
  %28 = load i8, ptr %8, align 1
  store atomic i8 %28, ptr %22 monotonic, align 1
  br label %33

29:                                               ; preds = %21
  %30 = load i8, ptr %8, align 1
  store atomic i8 %30, ptr %22 release, align 1
  br label %33

31:                                               ; preds = %21
  %32 = load i8, ptr %8, align 1
  store atomic i8 %32, ptr %22 seq_cst, align 1
  br label %33

33:                                               ; preds = %31, %29, %27
  call void @llvm.lifetime.end.p0(i64 4, ptr %7) #12
  ret void
}

; Function Attrs: mustprogress sspstrong uwtable
define linkonce_odr void @_ZN3tbb6detail2r112input_buffer23set_my_tls_end_of_inputEv(ptr noundef nonnull align 8 dereferenceable(49) %0) #0 comdat align 2 {
  %2 = alloca ptr, align 8
  store ptr %0, ptr %2, align 8, !tbaa !3
  %3 = load ptr, ptr %2, align 8
  %4 = getelementptr inbounds nuw %"class.tbb::detail::r1::input_buffer", ptr %3, i32 0, i32 8
  call void @_ZN3tbb6detail2r19basic_tlsIPNS1_12input_bufferEE3setES4_(ptr noundef nonnull align 4 dereferenceable(4) %4, ptr noundef %3)
  ret void
}

; Function Attrs: mustprogress nounwind sspstrong uwtable
define linkonce_odr void @_ZNSt6atomicIbE5storeEbSt12memory_order(ptr noundef nonnull align 1 dereferenceable(1) %0, i1 noundef zeroext %1, i32 noundef %2) #3 comdat align 2 {
  %4 = alloca ptr, align 8
  %5 = alloca i8, align 1
  %6 = alloca i32, align 4
  store ptr %0, ptr %4, align 8, !tbaa !59
  %7 = zext i1 %1 to i8
  store i8 %7, ptr %5, align 1, !tbaa !29
  store i32 %2, ptr %6, align 4, !tbaa !61
  %8 = load ptr, ptr %4, align 8
  %9 = getelementptr inbounds nuw %"struct.std::atomic", ptr %8, i32 0, i32 0
  %10 = load i8, ptr %5, align 1, !tbaa !29, !range !45, !noundef !46
  %11 = trunc i8 %10 to i1
  %12 = load i32, ptr %6, align 4, !tbaa !61
  call void @_ZNSt13__atomic_baseIbE5storeEbSt12memory_order(ptr noundef nonnull align 1 dereferenceable(1) %9, i1 noundef zeroext %11, i32 noundef %12) #12
  ret void
}

; Function Attrs: mustprogress nounwind sspstrong uwtable
define linkonce_odr noundef zeroext i1 @_ZNK3tbb6detail2d111base_filter9is_serialEv(ptr noundef nonnull align 8 dereferenceable(40) %0) #3 comdat align 2 {
  %2 = alloca ptr, align 8
  store ptr %0, ptr %2, align 8, !tbaa !57
  %3 = load ptr, ptr %2, align 8
  %4 = getelementptr inbounds nuw %"class.tbb::detail::d1::base_filter", ptr %3, i32 0, i32 3
  %5 = load i32, ptr %4, align 8, !tbaa !58
  %6 = and i32 %5, 1
  %7 = icmp ne i32 %6, 0
  ret i1 %7
}

; Function Attrs: mustprogress sspstrong uwtable
define void @_ZN3tbb6detail2r116set_end_of_inputERNS0_2d111base_filterE(ptr noundef nonnull align 8 dereferenceable(40) %0) #0 {
  %2 = alloca ptr, align 8
  store ptr %0, ptr %2, align 8, !tbaa !57
  %3 = load ptr, ptr %2, align 8, !tbaa !57
  %4 = call noundef zeroext i1 @_ZNK3tbb6detail2d111base_filter9is_serialEv(ptr noundef nonnull align 8 dereferenceable(40) %3)
  br i1 %4, label %5, label %10

5:                                                ; preds = %1
  %6 = load ptr, ptr %2, align 8, !tbaa !57
  %7 = getelementptr inbounds nuw %"class.tbb::detail::d1::base_filter", ptr %6, i32 0, i32 4
  %8 = load ptr, ptr %7, align 8, !tbaa !79
  %9 = getelementptr inbounds nuw %"class.tbb::detail::r1::pipeline", ptr %8, i32 0, i32 4
  call void @_ZNSt6atomicIbE5storeEbSt12memory_order(ptr noundef nonnull align 1 dereferenceable(1) %9, i1 noundef zeroext true, i32 noundef 0) #12
  br label %14

10:                                               ; preds = %1
  %11 = load ptr, ptr %2, align 8, !tbaa !57
  %12 = getelementptr inbounds nuw %"class.tbb::detail::d1::base_filter", ptr %11, i32 0, i32 2
  %13 = load ptr, ptr %12, align 8, !tbaa !52
  call void @_ZN3tbb6detail2r112input_buffer23set_my_tls_end_of_inputEv(ptr noundef nonnull align 8 dereferenceable(49) %13)
  br label %14

14:                                               ; preds = %10, %5
  ret void
}