; Function Attrs: mustprogress nounwind sspstrong uwtable
define void @_ZN3tbb6detail2r116set_end_of_inputERNS0_2d111base_filterE(ptr noundef nonnull readonly align 8 captures(none) dereferenceable(40) %0) local_unnamed_addr #3 {
  %2 = getelementptr inbounds nuw i8, ptr %0, i64 24
  %3 = load i32, ptr %2, align 8, !tbaa !39
  %4 = and i32 %3, 1
  %.not = icmp eq i32 %4, 0
  br i1 %.not, label %9, label %5

5:                                                ; preds = %1
  %6 = getelementptr inbounds nuw i8, ptr %0, i64 32
  %7 = load ptr, ptr %6, align 8, !tbaa !69
  %8 = getelementptr inbounds nuw i8, ptr %7, i64 32
  store atomic i8 1, ptr %8 monotonic, align 1
  br label %15

9:                                                ; preds = %1
  %10 = getelementptr inbounds nuw i8, ptr %0, i64 16
  %11 = load ptr, ptr %10, align 8, !tbaa !46
  %12 = getelementptr inbounds nuw i8, ptr %11, i64 44
  %13 = load i32, ptr %12, align 4, !tbaa !61
  %14 = tail call i32 @pthread_setspecific(i32 noundef %13, ptr noundef nonnull align 8 dereferenceable(49) %11) #10
  br label %15

15:                                               ; preds = %9, %5
  ret void
}